target datalayout = "e-m:e-p270:32:32-p271:32:32-p272:64:64-i64:64-i128:128-f80:128-n8:16:32:64-S128"
target triple = "x86_64-pc-linux-gnu"

%"struct.std::array" = type { [11 x ptr] }

@_ZN7rocksdb12_GLOBAL__N_132kCacheItemFullHelperForBlockTypeE = internal global %"struct.std::array" zeroinitializer, align 8
@_ZN7rocksdb12_GLOBAL__N_133kCacheItemBasicHelperForBlockTypeE = internal global %"struct.std::array" zeroinitializer, align 8

; Function Attrs: mustprogress nounwind uwtable
define linkonce_odr noundef nonnull align 8 dereferenceable(8) ptr @_ZNSt14__array_traitsIPKN7rocksdb5Cache15CacheItemHelperELm11EE6_S_refERA11_KS4_m(ptr noundef nonnull align 8 dereferenceable(88) %0, i64 noundef %1) #3 comdat align 2 {
  %3 = alloca ptr, align 8
  %4 = alloca i64, align 8
  store ptr %0, ptr %3, align 8, !tbaa !165
  store i64 %1, ptr %4, align 8, !tbaa !4
  %5 = load ptr, ptr %3, align 8, !tbaa !165
  %6 = load i64, ptr %4, align 8, !tbaa !4
  %7 = getelementptr inbounds nuw [11 x ptr], ptr %5, i64 0, i64 %6
  ret ptr %7
}

; Function Attrs: mustprogress nounwind uwtable
define linkonce_odr noundef nonnull align 8 dereferenceable(8) ptr @_ZNKSt5arrayIPKN7rocksdb5Cache15CacheItemHelperELm11EEixEm(ptr noundef nonnull align 8 dereferenceable(88) %0, i64 noundef %1) #3 comdat align 2 {
  %3 = alloca ptr, align 8
  %4 = alloca i64, align 8
  store ptr %0, ptr %3, align 8, !tbaa !122
  store i64 %1, ptr %4, align 8, !tbaa !4
  %5 = load ptr, ptr %3, align 8
  %6 = getelementptr inbounds nuw %"struct.std::array", ptr %5, i32 0, i32 0
  %7 = load i64, ptr %4, align 8, !tbaa !4
  %8 = call noundef nonnull align 8 dereferenceable(8) ptr @_ZNSt14__array_traitsIPKN7rocksdb5Cache15CacheItemHelperELm11EE6_S_refERA11_KS4_m(ptr noundef nonnull align 8 dereferenceable(88) %6, i64 noundef %7) #4
  ret ptr %8
}

; Function Attrs: mustprogress nounwind uwtable
define noundef ptr @_ZN7rocksdb18GetCacheItemHelperENS_9BlockTypeENS_9CacheTierE(i8 noundef zeroext %0, i8 noundef zeroext %1) #3 {
  %3 = alloca ptr, align 8
  %4 = alloca i8, align 1
  %5 = alloca i8, align 1
  store i8 %0, ptr %4, align 1, !tbaa !118
  store i8 %1, ptr %5, align 1, !tbaa !120
  %6 = load i8, ptr %5, align 1, !tbaa !120
  %7 = icmp ugt i8 %6, 0
  br i1 %7, label %8, label %14

8:                                                ; preds = %2
  %9 = load i8, ptr %4, align 1, !tbaa !118
  %10 = zext i8 %9 to i32
  %11 = zext i32 %10 to i64
  %12 = call noundef nonnull align 8 dereferenceable(8) ptr @_ZNKSt5arrayIPKN7rocksdb5Cache15CacheItemHelperELm11EEixEm(ptr noundef nonnull align 8 dereferenceable(88) @_ZN7rocksdb12_GLOBAL__N_132kCacheItemFullHelperForBlockTypeE, i64 noundef %11) #4
  %13 = load ptr, ptr %12, align 8, !tbaa !115
  store ptr %13, ptr %3, align 8
  br label %20

14:                                               ; preds = %2
  %15 = load i8, ptr %4, align 1, !tbaa !118
  %16 = zext i8 %15 to i32
  %17 = zext i32 %16 to i64
  %18 = call noundef nonnull align 8 dereferenceable(8) ptr @_ZNKSt5arrayIPKN7rocksdb5Cache15CacheItemHelperELm11EEixEm(ptr noundef nonnull align 8 dereferenceable(88) @_ZN7rocksdb12_GLOBAL__N_133kCacheItemBasicHelperForBlockTypeE, i64 noundef %17) #4
  %19 = load ptr, ptr %18, align 8, !tbaa !115
  store ptr %19, ptr %3, align 8
  br label %20

20:                                               ; preds = %14, %8
  %21 = load ptr, ptr %3, align 8
  ret ptr %21
}